#include <math.h>
#include <stdio.h>
#include <stdlib.h>
#include <string.h>

void main()
{
 
int PrimeElement(int n,int m);
 
int n,m,i,k,t; 
m=2; 
scanf("%d",&k);
for(i=0;i<k;i++)
{
	scanf("%d",&n);
	t=PrimeElement(n,m);
	printf("%d\n",t);
}
}

int PrimeElement(int n,int m) 
{ 
int i,t; 
t=0;
for (i=m;i <=sqrt((double)(n));i++) 

{
	if (n % i == 0) 
			t = t + PrimeElement(n / i, i);
}
t = t + 1;
return t;
}