; ModuleID = '1/70.c'
source_filename = "1/70.c"
target datalayout = "e-m:e-p270:32:32-p271:32:32-p272:64:64-i64:64-f80:128-n8:16:32:64-S128"
target triple = "x86_64-pc-linux-gnu"

@.str = private unnamed_addr constant [3 x i8] c"%d\00", align 1
@.str.1 = private unnamed_addr constant [4 x i8] c"%d\0A\00", align 1

; Function Attrs: noinline nounwind uwtable
define dso_local void @main() #0 {
  %1 = alloca i32, align 4
  %2 = alloca i32, align 4
  %3 = alloca i32, align 4
  %4 = alloca i32, align 4
  %5 = alloca i32, align 4
  store i32 2, i32* %2, align 4
  %6 = call i32 (i8*, ...) @__isoc99_scanf(i8* getelementptr inbounds ([3 x i8], [3 x i8]* @.str, i64 0, i64 0), i32* %4)
  store i32 0, i32* %3, align 4
  br label %7

7:                                                ; preds = %18, %0
  %8 = load i32, i32* %3, align 4
  %9 = load i32, i32* %4, align 4
  %10 = icmp slt i32 %8, %9
  br i1 %10, label %11, label %21

11:                                               ; preds = %7
  %12 = call i32 (i8*, ...) @__isoc99_scanf(i8* getelementptr inbounds ([3 x i8], [3 x i8]* @.str, i64 0, i64 0), i32* %1)
  %13 = load i32, i32* %1, align 4
  %14 = load i32, i32* %2, align 4
  %15 = call i32 @PrimeElement(i32 %13, i32 %14)
  store i32 %15, i32* %5, align 4
  %16 = load i32, i32* %5, align 4
  %17 = call i32 (i8*, ...) @printf(i8* getelementptr inbounds ([4 x i8], [4 x i8]* @.str.1, i64 0, i64 0), i32 %16)
  br label %18

18:                                               ; preds = %11
  %19 = load i32, i32* %3, align 4
  %20 = add nsw i32 %19, 1
  store i32 %20, i32* %3, align 4
  br label %7

21:                                               ; preds = %7
  ret void
}

declare dso_local i32 @__isoc99_scanf(i8*, ...) #1

; Function Attrs: noinline nounwind uwtable
define dso_local i32 @PrimeElement(i32 %0, i32 %1) #0 {
  %3 = alloca i32, align 4
  %4 = alloca i32, align 4
  %5 = alloca i32, align 4
  %6 = alloca i32, align 4
  store i32 %0, i32* %3, align 4
  store i32 %1, i32* %4, align 4
  store i32 0, i32* %6, align 4
  %7 = load i32, i32* %4, align 4
  store i32 %7, i32* %5, align 4
  br label %8

8:                                                ; preds = %29, %2
  %9 = load i32, i32* %5, align 4
  %10 = sitofp i32 %9 to double
  %11 = load i32, i32* %3, align 4
  %12 = sitofp i32 %11 to double
  %13 = call double @sqrt(double %12) #3
  %14 = fcmp ole double %10, %13
  br i1 %14, label %15, label %32

15:                                               ; preds = %8
  %16 = load i32, i32* %3, align 4
  %17 = load i32, i32* %5, align 4
  %18 = srem i32 %16, %17
  %19 = icmp eq i32 %18, 0
  br i1 %19, label %20, label %28

20:                                               ; preds = %15
  %21 = load i32, i32* %6, align 4
  %22 = load i32, i32* %3, align 4
  %23 = load i32, i32* %5, align 4
  %24 = sdiv i32 %22, %23
  %25 = load i32, i32* %5, align 4
  %26 = call i32 @PrimeElement(i32 %24, i32 %25)
  %27 = add nsw i32 %21, %26
  store i32 %27, i32* %6, align 4
  br label %28

28:                                               ; preds = %20, %15
  br label %29

29:                                               ; preds = %28
  %30 = load i32, i32* %5, align 4
  %31 = add nsw i32 %30, 1
  store i32 %31, i32* %5, align 4
  br label %8

32:                                               ; preds = %8
  %33 = load i32, i32* %6, align 4
  %34 = add nsw i32 %33, 1
  store i32 %34, i32* %6, align 4
  %35 = load i32, i32* %6, align 4
  ret i32 %35
}

declare dso_local i32 @printf(i8*, ...) #1

; Function Attrs: nounwind
declare dso_local double @sqrt(double) #2


!llvm.module.flags = !{!0}
!llvm.ident = !{!1}

!0 = !{i32 1, !"wchar_size", i32 4}
!1 = !{!"clang version 10.0.0-4ubuntu1 "}
